(i__main__
Move
p0
(dp1
S'_strength'
p2
I4
sS'_se'
p3
I0
sS'_des'
p4
S"A weak scratching attack. Doesn't do much.\n"
p5
sS'_name'
p6
S'Scratch\n'
p7
sb.(i__main__
Move
p0
(dp1
S'_strength'
p2
I7
sS'_se'
p3
I1
sS'_des'
p4
S'Hits the target with small burst of blue fire. May burn.\n'
p5
sS'_name'
p6
S'Foxfire\n'
p7
sb.(i__main__
Move
p0
(dp1
S'_strength'
p2
I9
sS'_se'
p3
I0
sS'_des'
p4
S'Utilise illusions to attack a traget from hiding. Does high damage.\n'
p5
sS'_name'
p6
S'Night Daze\n'
p7
sb.(i__main__
Move
p0
(dp1
S'_strength'
p2
I0
sS'_se'
p3
I2
sS'_des'
p4
S'A Non-damaging move that puts the target to sleep\n'
p5
sS'_name'
p6
S'Hypnosis\n'
p7
sb.(i__main__
Move
p0
(dp1
S'_strength'
p2
I0
sS'_se'
p3
I14
sS'_des'
p4
S'Utilise illusions to decreses the chance of being hit by 1 stage this turn.\n'
p5
sS'_name'
p6
S'Illusion Delusion\n'
p7
sb.(i__main__
Move
p0
(dp1
S'_strength'
p2
I16
sS'_se'
p3
I1
sS'_des'
p4
S'Surronds the target in a spectacular display of pyrokinetic control that does incredible damage. \tMay burn.\n'
p5
sS'_name'
p6
S'Foxfire Festival\n'
p7
sb.