(i__main__
Move
p0
(dp1
S'_strength'
p2
I0
sS'_se'
p3
I16
sS'_des'
p4
S'Uses the power of Nature to heal.\n'
p5
sS'_name'
p6
S"Nature's Gift\n"
p7
sb.(i__main__
Move
p0
(dp1
S'_strength'
p2
I5
sS'_se'
p3
I10
sS'_des'
p4
S'A swirling of ice magic that torrents through the target. Does more damage if target is frozen\n'
p5
sS'_name'
p6
S'Cold Snap\n'
p7
sb.(i__main__
Move
p0
(dp1
S'_strength'
p2
I6
sS'_se'
p3
I6
sS'_des'
p4
S'A torent of fire magic that swirls around a target. Does more damage if the target is burned\n'
p5
sS'_name'
p6
S'Heat Wave\n'
p7
sb.(i__main__
Move
p0
(dp1
S'_strength'
p2
I7
sS'_se'
p3
I7
sS'_des'
p4
S'Slams the mind of a target with a wave of mental energy. Does more damgae if target is asleep\n'
p5
sS'_name'
p6
S'Dream Theif\n'
p7
sb.(i__main__
Move
p0
(dp1
S'_strength'
p2
I8
sS'_se'
p3
I8
sS'_des'
p4
S'Hits the target with a bolt of magical lightning. Does more damage if target is paralyzed\n'
p5
sS'_name'
p6
S'Thunder Struck\n'
p7
sb.(i__main__
Move
p0
(dp1
S'_strength'
p2
I11
sS'_se'
p3
I9
sS'_des'
p4
S'A blast of fae energy that explodes around a target. Does more damage if the target is poisoned\n'
p5
sS'_name'
p6
S'Court Mischief\n'
p7
sb.